target datalayout = "e-m:e-p270:32:32-p271:32:32-p272:64:64-i64:64-i128:128-f80:128-n8:16:32:64-S128"
target triple = "x86_64-pc-linux-gnu"

%struct.jv = type { i8, i8, i16, i32, %union.anon }
%union.anon = type { ptr }
%struct.jq_util_input_state = type { ptr, ptr, ptr, ptr, ptr, i32, i32, i32, %struct.jv, [4096 x i8], i64, %struct.jv, i64 }

@.str.5 = private unnamed_addr constant [32 x i8] c"Invalid jq_util_input API usage\00", align 1
@.str.6 = private unnamed_addr constant [10 x i8] c"<unknown>\00", align 1
@.str.7 = private unnamed_addr constant [7 x i8] c"%s:%lu\00", align 1

; Function Attrs: nounwind uwtable
define dso_local { i64, ptr } @jq_util_input_get_position(ptr noundef %0) #0 {
  %2 = alloca %struct.jv, align 8
  %3 = alloca ptr, align 8
  %4 = alloca ptr, align 8
  %5 = alloca ptr, align 8
  %6 = alloca %struct.jv, align 8
  %7 = alloca i32, align 4
  %8 = alloca ptr, align 8
  store ptr %0, ptr %3, align 8, !tbaa !37
  call void @llvm.lifetime.start.p0(i64 8, ptr %4) #8
  store ptr null, ptr %4, align 8, !tbaa !15
  call void @llvm.lifetime.start.p0(i64 8, ptr %5) #8
  store ptr null, ptr %5, align 8, !tbaa !15
  %9 = load ptr, ptr %3, align 8, !tbaa !37
  call void @jq_get_input_cb(ptr noundef %9, ptr noundef %4, ptr noundef %5)
  %10 = load ptr, ptr %4, align 8, !tbaa !15
  %11 = icmp ne ptr %10, @jq_util_input_next_input_cb
  br i1 %11, label %12, label %27

12:                                               ; preds = %1
  %13 = call { i64, ptr } @jv_string(ptr noundef @.str.5)
  %14 = getelementptr inbounds nuw { i64, ptr }, ptr %6, i32 0, i32 0
  %15 = extractvalue { i64, ptr } %13, 0
  store i64 %15, ptr %14, align 8
  %16 = getelementptr inbounds nuw { i64, ptr }, ptr %6, i32 0, i32 1
  %17 = extractvalue { i64, ptr } %13, 1
  store ptr %17, ptr %16, align 8
  %18 = getelementptr inbounds nuw { i64, ptr }, ptr %6, i32 0, i32 0
  %19 = load i64, ptr %18, align 8
  %20 = getelementptr inbounds nuw { i64, ptr }, ptr %6, i32 0, i32 1
  %21 = load ptr, ptr %20, align 8
  %22 = call { i64, ptr } @jv_invalid_with_msg(i64 %19, ptr %21)
  %23 = getelementptr inbounds nuw { i64, ptr }, ptr %2, i32 0, i32 0
  %24 = extractvalue { i64, ptr } %22, 0
  store i64 %24, ptr %23, align 8
  %25 = getelementptr inbounds nuw { i64, ptr }, ptr %2, i32 0, i32 1
  %26 = extractvalue { i64, ptr } %22, 1
  store ptr %26, ptr %25, align 8
  store i32 1, ptr %7, align 4
  br label %60

27:                                               ; preds = %1
  call void @llvm.lifetime.start.p0(i64 8, ptr %8) #8
  %28 = load ptr, ptr %5, align 8, !tbaa !15
  store ptr %28, ptr %8, align 8, !tbaa !20
  %29 = load ptr, ptr %8, align 8, !tbaa !20
  %30 = getelementptr inbounds nuw %struct.jq_util_input_state, ptr %29, i32 0, i32 11
  %31 = getelementptr inbounds nuw { i64, ptr }, ptr %30, i32 0, i32 0
  %32 = load i64, ptr %31, align 8
  %33 = getelementptr inbounds nuw { i64, ptr }, ptr %30, i32 0, i32 1
  %34 = load ptr, ptr %33, align 8
  %35 = call i32 @jv_get_kind(i64 %32, ptr %34)
  %36 = icmp ne i32 %35, 5
  br i1 %36, label %37, label %43

37:                                               ; preds = %27
  %38 = call { i64, ptr } @jv_string(ptr noundef @.str.6)
  %39 = getelementptr inbounds nuw { i64, ptr }, ptr %2, i32 0, i32 0
  %40 = extractvalue { i64, ptr } %38, 0
  store i64 %40, ptr %39, align 8
  %41 = getelementptr inbounds nuw { i64, ptr }, ptr %2, i32 0, i32 1
  %42 = extractvalue { i64, ptr } %38, 1
  store ptr %42, ptr %41, align 8
  store i32 1, ptr %7, align 4
  br label %59

43:                                               ; preds = %27
  %44 = load ptr, ptr %8, align 8, !tbaa !20
  %45 = getelementptr inbounds nuw %struct.jq_util_input_state, ptr %44, i32 0, i32 11
  %46 = getelementptr inbounds nuw { i64, ptr }, ptr %45, i32 0, i32 0
  %47 = load i64, ptr %46, align 8
  %48 = getelementptr inbounds nuw { i64, ptr }, ptr %45, i32 0, i32 1
  %49 = load ptr, ptr %48, align 8
  %50 = call ptr @jv_string_value(i64 %47, ptr %49)
  %51 = load ptr, ptr %8, align 8, !tbaa !20
  %52 = getelementptr inbounds nuw %struct.jq_util_input_state, ptr %51, i32 0, i32 12
  %53 = load i64, ptr %52, align 8, !tbaa !41
  %54 = call { i64, ptr } (ptr, ...) @jv_string_fmt(ptr noundef @.str.7, ptr noundef %50, i64 noundef %53)
  %55 = getelementptr inbounds nuw { i64, ptr }, ptr %2, i32 0, i32 0
  %56 = extractvalue { i64, ptr } %54, 0
  store i64 %56, ptr %55, align 8
  %57 = getelementptr inbounds nuw { i64, ptr }, ptr %2, i32 0, i32 1
  %58 = extractvalue { i64, ptr } %54, 1
  store ptr %58, ptr %57, align 8
  store i32 1, ptr %7, align 4
  br label %59

59:                                               ; preds = %43, %37
  call void @llvm.lifetime.end.p0(i64 8, ptr %8) #8
  br label %60

60:                                               ; preds = %59, %12
  call void @llvm.lifetime.end.p0(i64 8, ptr %5) #8
  call void @llvm.lifetime.end.p0(i64 8, ptr %4) #8
  %61 = load { i64, ptr }, ptr %2, align 8
  ret { i64, ptr } %61
}